; Function Attrs: nounwind uwtable
define ptr @l_Lake_MainM_instMonadError___rarg(ptr noundef %0, ptr noundef %1) #0 {
  tail call void @lean_inc_heartbeat() #3
  %3 = tail call noalias ptr @mi_malloc_small(i64 noundef 24) #3
  %4 = icmp eq ptr %3, null
  br i1 %4, label %5, label %lean_alloc_ctor.exit

5:                                                ; preds = %2
  tail call void @lean_internal_panic_out_of_memory() #4
  unreachable

lean_alloc_ctor.exit:                             ; preds = %2
  %6 = getelementptr inbounds nuw i8, ptr %3, i64 4
  %7 = getelementptr inbounds nuw i8, ptr %3, i64 16
  store i64 3, ptr %7, align 8, !tbaa !14
  store i32 1, ptr %3, align 4, !tbaa !4
  store i32 65560, ptr %6, align 4
  %8 = getelementptr inbounds nuw i8, ptr %3, i64 8
  store ptr %0, ptr %8, align 8, !tbaa !9
  %9 = tail call ptr @l_Lake_OutStream_logEntry(ptr noundef nonnull inttoptr (i64 3 to ptr), ptr noundef nonnull %3, i8 noundef zeroext 1, i8 noundef zeroext 0, ptr noundef %1) #3
  %10 = ptrtoint ptr %3 to i64
  %11 = and i64 %10, 1
  %.not = icmp eq i64 %11, 0
  br i1 %.not, label %12, label %lean_dec.exit27

12:                                               ; preds = %lean_alloc_ctor.exit
  %13 = load i32, ptr %3, align 4, !tbaa !4
  %14 = icmp sgt i32 %13, 1
  br i1 %14, label %15, label %17, !prof !13

15:                                               ; preds = %12
  %16 = add nsw i32 %13, -1
  store i32 %16, ptr %3, align 4, !tbaa !4
  br label %lean_dec.exit27

17:                                               ; preds = %12
  %.not.i = icmp eq i32 %13, 0
  br i1 %.not.i, label %lean_dec.exit27, label %18

18:                                               ; preds = %17
  tail call void @lean_dec_ref_cold(ptr noundef nonnull %3) #3
  br label %lean_dec.exit27

lean_dec.exit27:                                  ; preds = %18, %17, %15, %lean_alloc_ctor.exit
  %.val = load i32, ptr %9, align 4, !tbaa !4
  %19 = icmp eq i32 %.val, 1
  br i1 %19, label %20, label %37

20:                                               ; preds = %lean_dec.exit27
  %21 = getelementptr inbounds nuw i8, ptr %9, i64 8
  %22 = load ptr, ptr %21, align 8, !tbaa !9
  %23 = ptrtoint ptr %22 to i64
  %24 = and i64 %23, 1
  %.not36 = icmp eq i64 %24, 0
  br i1 %.not36, label %25, label %lean_dec.exit26

25:                                               ; preds = %20
  %26 = load i32, ptr %22, align 4, !tbaa !4
  %27 = icmp sgt i32 %26, 1
  br i1 %27, label %28, label %30, !prof !13

28:                                               ; preds = %25
  %29 = add nsw i32 %26, -1
  store i32 %29, ptr %22, align 4, !tbaa !4
  br label %lean_dec.exit26

30:                                               ; preds = %25
  %.not.i28 = icmp eq i32 %26, 0
  br i1 %.not.i28, label %lean_dec.exit26, label %31

31:                                               ; preds = %30
  tail call void @lean_dec_ref_cold(ptr noundef nonnull %22) #3
  br label %lean_dec.exit26

lean_dec.exit26:                                  ; preds = %31, %30, %28, %20
  %32 = load ptr, ptr @l_Lake_MainM_instMonadError___rarg___boxed__const__1, align 8, !tbaa !9
  %33 = getelementptr inbounds nuw i8, ptr %9, i64 4
  %34 = load i32, ptr %33, align 4
  %35 = and i32 %34, 16777215
  %36 = or disjoint i32 %35, 16777216
  store i32 %36, ptr %33, align 4
  store ptr %32, ptr %21, align 8, !tbaa !9
  br label %64

37:                                               ; preds = %lean_dec.exit27
  %38 = getelementptr inbounds nuw i8, ptr %9, i64 16
  %39 = load ptr, ptr %38, align 8, !tbaa !9
  %40 = ptrtoint ptr %39 to i64
  %41 = and i64 %40, 1
  %.not34 = icmp eq i64 %41, 0
  br i1 %.not34, label %42, label %lean_inc.exit

42:                                               ; preds = %37
  %.val.i = load i32, ptr %39, align 4, !tbaa !4
  %43 = icmp sgt i32 %.val.i, 0
  br i1 %43, label %44, label %46, !prof !13

44:                                               ; preds = %42
  %45 = add nuw i32 %.val.i, 1
  store i32 %45, ptr %39, align 4, !tbaa !4
  br label %lean_inc.exit

46:                                               ; preds = %42
  %.not.i32 = icmp eq i32 %.val.i, 0
  br i1 %.not.i32, label %lean_inc.exit, label %47

47:                                               ; preds = %46
  tail call void @lean_inc_ref_cold(ptr noundef nonnull %39) #3
  br label %lean_inc.exit

lean_inc.exit:                                    ; preds = %47, %46, %44, %37
  %48 = ptrtoint ptr %9 to i64
  %49 = and i64 %48, 1
  %.not35 = icmp eq i64 %49, 0
  br i1 %.not35, label %50, label %lean_dec.exit

50:                                               ; preds = %lean_inc.exit
  %51 = load i32, ptr %9, align 4, !tbaa !4
  %52 = icmp sgt i32 %51, 1
  br i1 %52, label %53, label %55, !prof !13

53:                                               ; preds = %50
  %54 = add nsw i32 %51, -1
  store i32 %54, ptr %9, align 4, !tbaa !4
  br label %lean_dec.exit

55:                                               ; preds = %50
  %.not.i30 = icmp eq i32 %51, 0
  br i1 %.not.i30, label %lean_dec.exit, label %56

56:                                               ; preds = %55
  tail call void @lean_dec_ref_cold(ptr noundef nonnull %9) #3
  br label %lean_dec.exit

lean_dec.exit:                                    ; preds = %56, %55, %53, %lean_inc.exit
  %57 = load ptr, ptr @l_Lake_MainM_instMonadError___rarg___boxed__const__1, align 8, !tbaa !9
  tail call void @lean_inc_heartbeat() #3
  %58 = tail call noalias ptr @mi_malloc_small(i64 noundef 24) #3
  %59 = icmp eq ptr %58, null
  br i1 %59, label %60, label %lean_alloc_ctor.exit33

60:                                               ; preds = %lean_dec.exit
  tail call void @lean_internal_panic_out_of_memory() #4
  unreachable

lean_alloc_ctor.exit33:                           ; preds = %lean_dec.exit
  %61 = getelementptr inbounds nuw i8, ptr %58, i64 4
  store i32 1, ptr %58, align 4, !tbaa !4
  store i32 16908312, ptr %61, align 4
  %62 = getelementptr inbounds nuw i8, ptr %58, i64 8
  store ptr %57, ptr %62, align 8, !tbaa !9
  %63 = getelementptr inbounds nuw i8, ptr %58, i64 16
  store ptr %39, ptr %63, align 8, !tbaa !9
  br label %64

64:                                               ; preds = %lean_alloc_ctor.exit33, %lean_dec.exit26
  %.0 = phi ptr [ %9, %lean_dec.exit26 ], [ %58, %lean_alloc_ctor.exit33 ]
  ret ptr %.0
}